target datalayout = "e-m:e-p270:32:32-p271:32:32-p272:64:64-i64:64-i128:128-f80:128-n8:16:32:64-S128"
target triple = "x86_64-unknown-linux-gnu"

%"class.icu_75::UObject" = type { ptr }
%"class.icu_75::UnicodeString" = type { %"class.icu_75::Replaceable", %"union.icu_75::UnicodeString::StackBufferOrFields" }
%"class.icu_75::Replaceable" = type { %"class.icu_75::UObject" }
%"union.icu_75::UnicodeString::StackBufferOrFields" = type { %struct.anon.0, [32 x i8] }
%struct.anon.0 = type { i16, i32, i32, ptr }
%"class.icu_75::Formattable" = type { %"class.icu_75::UObject", %union.anon, ptr, ptr, i32, %"class.icu_75::UnicodeString" }
%union.anon = type { %struct.anon.1 }
%struct.anon.1 = type { ptr, i32 }
%"class.icu_75::FieldPosition" = type <{ %"class.icu_75::UObject", i32, i32, i32, [4 x i8] }>
%struct.anon = type { i16, [27 x i16] }

@_ZTVN6icu_7513FieldPositionE = external unnamed_addr constant { [5 x ptr] }, align 8
@_ZTVN6icu_757UObjectE = external unnamed_addr constant { [5 x ptr] }, align 8
@_ZTVN6icu_7513UnicodeStringE = external unnamed_addr constant { [13 x ptr] }, align 8
@_ZTVN6icu_7511ReplaceableE = external unnamed_addr constant { [13 x ptr] }, align 8

; Function Attrs: mustprogress nounwind uwtable
define linkonce_odr void @_ZN6icu_7511ReplaceableC2Ev(ptr noundef nonnull align 8 dereferenceable(8) %this) unnamed_addr #0 comdat align 2 {
entry:
  %this.addr = alloca ptr, align 8
  store ptr %this, ptr %this.addr, align 8
  %this1 = load ptr, ptr %this.addr, align 8
  call void @_ZN6icu_757UObjectC2Ev(ptr noundef nonnull align 8 dereferenceable(8) %this1) #10
  store ptr getelementptr inbounds ({ [13 x ptr] }, ptr @_ZTVN6icu_7511ReplaceableE, i32 0, i32 0, i32 2), ptr %this1, align 8
  ret void
}

; Function Attrs: mustprogress nounwind uwtable
define linkonce_odr void @_ZN6icu_757UObjectC2Ev(ptr noundef nonnull align 8 dereferenceable(8) %this) unnamed_addr #0 comdat align 2 {
entry:
  %this.addr = alloca ptr, align 8
  store ptr %this, ptr %this.addr, align 8
  %this1 = load ptr, ptr %this.addr, align 8
  store ptr getelementptr inbounds ({ [5 x ptr] }, ptr @_ZTVN6icu_757UObjectE, i32 0, i32 0, i32 2), ptr %this1, align 8
  ret void
}

; Function Attrs: mustprogress uwtable
define linkonce_odr void @_ZN6icu_7513UnicodeStringC2Ev(ptr noundef nonnull align 8 dereferenceable(64) %this) unnamed_addr #1 comdat align 2 {
entry:
  %this.addr = alloca ptr, align 8
  store ptr %this, ptr %this.addr, align 8
  %this1 = load ptr, ptr %this.addr, align 8
  call void @_ZN6icu_7511ReplaceableC2Ev(ptr noundef nonnull align 8 dereferenceable(8) %this1)
  store ptr getelementptr inbounds ({ [13 x ptr] }, ptr @_ZTVN6icu_7513UnicodeStringE, i32 0, i32 0, i32 2), ptr %this1, align 8
  %fUnion2 = getelementptr inbounds %"class.icu_75::UnicodeString", ptr %this1, i32 0, i32 1
  %fLengthAndFlags = getelementptr inbounds %struct.anon, ptr %fUnion2, i32 0, i32 0
  store i16 2, ptr %fLengthAndFlags, align 8
  ret void
}

; Function Attrs: mustprogress nounwind uwtable
define linkonce_odr void @_ZN6icu_7513FieldPositionC2Ei(ptr noundef nonnull align 8 dereferenceable(20) %this, i32 noundef %field) unnamed_addr #0 comdat align 2 {
entry:
  %this.addr = alloca ptr, align 8
  %field.addr = alloca i32, align 4
  store ptr %this, ptr %this.addr, align 8
  store i32 %field, ptr %field.addr, align 4
  %this1 = load ptr, ptr %this.addr, align 8
  %0 = getelementptr inbounds i8, ptr %this1, i64 0
  call void @llvm.memset.p0.i64(ptr align 8 %0, i8 0, i64 8, i1 false)
  call void @_ZN6icu_757UObjectC2Ev(ptr noundef nonnull align 8 dereferenceable(8) %this1) #10
  store ptr getelementptr inbounds ({ [5 x ptr] }, ptr @_ZTVN6icu_7513FieldPositionE, i32 0, i32 0, i32 2), ptr %this1, align 8
  %fField = getelementptr inbounds %"class.icu_75::FieldPosition", ptr %this1, i32 0, i32 1
  %1 = load i32, ptr %field.addr, align 4
  store i32 %1, ptr %fField, align 8
  %fBeginIndex = getelementptr inbounds %"class.icu_75::FieldPosition", ptr %this1, i32 0, i32 2
  store i32 0, ptr %fBeginIndex, align 4
  %fEndIndex = getelementptr inbounds %"class.icu_75::FieldPosition", ptr %this1, i32 0, i32 3
  store i32 0, ptr %fEndIndex, align 8
  ret void
}

; Function Attrs: mustprogress uwtable
define void @_ZNK6icu_7512PluralFormat6formatEdR10UErrorCode(ptr noalias sret(%"class.icu_75::UnicodeString") align 8 %agg.result, ptr noundef nonnull align 8 dereferenceable(712) %this, double noundef %number, ptr noundef nonnull align 4 dereferenceable(4) %status) #1 align 2 personality ptr @__gxx_personality_v0 {
entry:
  %result.ptr = alloca ptr, align 8
  %this.addr = alloca ptr, align 8
  %number.addr = alloca double, align 8
  %status.addr = alloca ptr, align 8
  %fpos = alloca %"class.icu_75::FieldPosition", align 8
  %result = alloca %"class.icu_75::UnicodeString", align 8
  %exn.slot = alloca ptr, align 8
  %ehselector.slot = alloca i32, align 4
  %ref.tmp = alloca %"class.icu_75::Formattable", align 8
  store ptr %agg.result, ptr %result.ptr, align 8
  store ptr %this, ptr %this.addr, align 8
  store double %number, ptr %number.addr, align 8
  store ptr %status, ptr %status.addr, align 8
  %this1 = load ptr, ptr %this.addr, align 8
  call void @_ZN6icu_7513FieldPositionC2Ei(ptr noundef nonnull align 8 dereferenceable(20) %fpos, i32 noundef -1)
  invoke void @_ZN6icu_7513UnicodeStringC2Ev(ptr noundef nonnull align 8 dereferenceable(64) %result)
          to label %invoke.cont unwind label %lpad

invoke.cont:                                      ; preds = %entry
  %0 = load double, ptr %number.addr, align 8
  invoke void @_ZN6icu_7511FormattableC1Ed(ptr noundef nonnull align 8 dereferenceable(112) %ref.tmp, double noundef %0)
          to label %invoke.cont3 unwind label %lpad2

invoke.cont3:                                     ; preds = %invoke.cont
  %1 = load double, ptr %number.addr, align 8
  %2 = load ptr, ptr %status.addr, align 8
  %call = invoke noundef nonnull align 8 dereferenceable(64) ptr @_ZNK6icu_7512PluralFormat6formatERKNS_11FormattableEdRNS_13UnicodeStringERNS_13FieldPositionER10UErrorCode(ptr noundef nonnull align 8 dereferenceable(712) %this1, ptr noundef nonnull align 8 dereferenceable(112) %ref.tmp, double noundef %1, ptr noundef nonnull align 8 dereferenceable(64) %result, ptr noundef nonnull align 8 dereferenceable(20) %fpos, ptr noundef nonnull align 4 dereferenceable(4) %2)
          to label %invoke.cont5 unwind label %lpad4

invoke.cont5:                                     ; preds = %invoke.cont3
  invoke void @_ZN6icu_7513UnicodeStringC1ERKS0_(ptr noundef nonnull align 8 dereferenceable(64) %agg.result, ptr noundef nonnull align 8 dereferenceable(64) %call)
          to label %invoke.cont6 unwind label %lpad4

invoke.cont6:                                     ; preds = %invoke.cont5
  call void @_ZN6icu_7511FormattableD1Ev(ptr noundef nonnull align 8 dereferenceable(112) %ref.tmp) #10
  call void @_ZN6icu_7513UnicodeStringD1Ev(ptr noundef nonnull align 8 dereferenceable(64) %result) #10
  call void @_ZN6icu_7513FieldPositionD1Ev(ptr noundef nonnull align 8 dereferenceable(20) %fpos) #10
  ret void

lpad:                                             ; preds = %entry
  %3 = landingpad { ptr, i32 }
          cleanup
  %4 = extractvalue { ptr, i32 } %3, 0
  store ptr %4, ptr %exn.slot, align 8
  %5 = extractvalue { ptr, i32 } %3, 1
  store i32 %5, ptr %ehselector.slot, align 4
  br label %ehcleanup7

lpad2:                                            ; preds = %invoke.cont
  %6 = landingpad { ptr, i32 }
          cleanup
  %7 = extractvalue { ptr, i32 } %6, 0
  store ptr %7, ptr %exn.slot, align 8
  %8 = extractvalue { ptr, i32 } %6, 1
  store i32 %8, ptr %ehselector.slot, align 4
  br label %ehcleanup

lpad4:                                            ; preds = %invoke.cont5, %invoke.cont3
  %9 = landingpad { ptr, i32 }
          cleanup
  %10 = extractvalue { ptr, i32 } %9, 0
  store ptr %10, ptr %exn.slot, align 8
  %11 = extractvalue { ptr, i32 } %9, 1
  store i32 %11, ptr %ehselector.slot, align 4
  call void @_ZN6icu_7511FormattableD1Ev(ptr noundef nonnull align 8 dereferenceable(112) %ref.tmp) #10
  br label %ehcleanup

ehcleanup:                                        ; preds = %lpad4, %lpad2
  call void @_ZN6icu_7513UnicodeStringD1Ev(ptr noundef nonnull align 8 dereferenceable(64) %result) #10
  br label %ehcleanup7

ehcleanup7:                                       ; preds = %ehcleanup, %lpad
  call void @_ZN6icu_7513FieldPositionD1Ev(ptr noundef nonnull align 8 dereferenceable(20) %fpos) #10
  br label %eh.resume

eh.resume:                                        ; preds = %ehcleanup7
  %exn = load ptr, ptr %exn.slot, align 8
  %sel = load i32, ptr %ehselector.slot, align 4
  %lpad.val = insertvalue { ptr, i32 } poison, ptr %exn, 0
  %lpad.val8 = insertvalue { ptr, i32 } %lpad.val, i32 %sel, 1
  resume { ptr, i32 } %lpad.val8
}