; Function Attrs: mustprogress uwtable
define void @_ZNK6icu_7512PluralFormat6formatEdR10UErrorCode(ptr noalias sret(%"class.icu_75::UnicodeString") align 8 %agg.result, ptr noundef nonnull align 8 dereferenceable(712) %this, double noundef %number, ptr noundef nonnull align 4 dereferenceable(4) %status) local_unnamed_addr #1 align 2 personality ptr @__gxx_personality_v0 {
invoke.cont:
  %fpos = alloca %"class.icu_75::FieldPosition", align 8
  %result = alloca %"class.icu_75::UnicodeString", align 8
  %ref.tmp = alloca %"class.icu_75::Formattable", align 8
  store ptr getelementptr inbounds ({ [5 x ptr] }, ptr @_ZTVN6icu_7513FieldPositionE, i64 0, i32 0, i64 2), ptr %fpos, align 8
  %fField.i = getelementptr inbounds i8, ptr %fpos, i64 8
  store i32 -1, ptr %fField.i, align 8
  %fBeginIndex.i = getelementptr inbounds i8, ptr %fpos, i64 12
  store i32 0, ptr %fBeginIndex.i, align 4
  %fEndIndex.i = getelementptr inbounds i8, ptr %fpos, i64 16
  store i32 0, ptr %fEndIndex.i, align 8
  store ptr getelementptr inbounds ({ [13 x ptr] }, ptr @_ZTVN6icu_7513UnicodeStringE, i64 0, i32 0, i64 2), ptr %result, align 8
  %fUnion2.i = getelementptr inbounds i8, ptr %result, i64 8
  store i16 2, ptr %fUnion2.i, align 8
  invoke void @_ZN6icu_7511FormattableC1Ed(ptr noundef nonnull align 8 dereferenceable(112) %ref.tmp, double noundef %number)
          to label %invoke.cont3 unwind label %lpad2

invoke.cont3:                                     ; preds = %invoke.cont
  %call = invoke noundef nonnull align 8 dereferenceable(64) ptr @_ZNK6icu_7512PluralFormat6formatERKNS_11FormattableEdRNS_13UnicodeStringERNS_13FieldPositionER10UErrorCode(ptr noundef nonnull align 8 dereferenceable(712) %this, ptr noundef nonnull align 8 dereferenceable(112) %ref.tmp, double noundef %number, ptr noundef nonnull align 8 dereferenceable(64) %result, ptr noundef nonnull align 8 dereferenceable(20) %fpos, ptr noundef nonnull align 4 dereferenceable(4) %status)
          to label %invoke.cont5 unwind label %lpad4

invoke.cont5:                                     ; preds = %invoke.cont3
  invoke void @_ZN6icu_7513UnicodeStringC1ERKS0_(ptr noundef nonnull align 8 dereferenceable(64) %agg.result, ptr noundef nonnull align 8 dereferenceable(64) %call)
          to label %invoke.cont6 unwind label %lpad4

invoke.cont6:                                     ; preds = %invoke.cont5
  call void @_ZN6icu_7511FormattableD1Ev(ptr noundef nonnull align 8 dereferenceable(112) %ref.tmp) #15
  call void @_ZN6icu_7513UnicodeStringD1Ev(ptr noundef nonnull align 8 dereferenceable(64) %result) #15
  call void @_ZN6icu_7513FieldPositionD1Ev(ptr noundef nonnull align 8 dereferenceable(20) %fpos) #15
  ret void

lpad2:                                            ; preds = %invoke.cont
  %0 = landingpad { ptr, i32 }
          cleanup
  br label %ehcleanup

lpad4:                                            ; preds = %invoke.cont5, %invoke.cont3
  %1 = landingpad { ptr, i32 }
          cleanup
  call void @_ZN6icu_7511FormattableD1Ev(ptr noundef nonnull align 8 dereferenceable(112) %ref.tmp) #15
  br label %ehcleanup

ehcleanup:                                        ; preds = %lpad4, %lpad2
  %.pn = phi { ptr, i32 } [ %1, %lpad4 ], [ %0, %lpad2 ]
  call void @_ZN6icu_7513UnicodeStringD1Ev(ptr noundef nonnull align 8 dereferenceable(64) %result) #15
  call void @_ZN6icu_7513FieldPositionD1Ev(ptr noundef nonnull align 8 dereferenceable(20) %fpos) #15
  resume { ptr, i32 } %.pn
}